target datalayout = "e-m:e-p270:32:32-p271:32:32-p272:64:64-i64:64-i128:128-f80:128-n8:16:32:64-S128"
target triple = "x86_64-pc-linux-gnu"

%struct._psqlSettings = type { ptr, i32, ptr, i8, ptr, ptr, %struct.printQueryOpt, ptr, ptr, ptr, i8, i8, i32, i32, ptr, ptr, i8, [4 x ptr], i8, i32, ptr, i8, i32, ptr, ptr, i64, i64, i8, ptr, ptr, ptr, i8, i8, i8, i8, i8, i8, i8, i32, i32, i32, i32, i32, i32, i32, i32, ptr, ptr, ptr, i32, i8, i32 }
%struct.printQueryOpt = type { %struct.printTableOpt, ptr, ptr, ptr, i8, ptr, i32 }
%struct.printTableOpt = type { i32, i16, i32, i32, i16, i16, i32, i8, i8, i8, i8, i64, ptr, %struct.separator, %struct.separator, [2 x i8], i8, ptr, i32, i32, i32, i32, i32, i32 }
%struct.separator = type { ptr, i8 }
%struct.PQExpBufferData = type { ptr, i64, i64 }

@pset = external global %struct._psqlSettings, align 8
@.str.6 = private unnamed_addr constant [12 x i8] c"Description\00", align 1
@.str.61 = private unnamed_addr constant [4 x i8] c"yes\00", align 1
@.str.62 = private unnamed_addr constant [3 x i8] c"no\00", align 1
@.str.63 = private unnamed_addr constant [11 x i8] c"Leakproof?\00", align 1
@.str.118 = private unnamed_addr constant [9 x i8] c"Function\00", align 1
@listCasts.translate_columns = internal constant [6 x i8] c"\00\00\00\01\01\00", align 1
@.str.397 = private unnamed_addr constant [115 x i8] c"SELECT pg_catalog.format_type(castsource, NULL) AS \22%s\22,\0A       pg_catalog.format_type(casttarget, NULL) AS \22%s\22,\0A\00", align 1
@.str.398 = private unnamed_addr constant [12 x i8] c"Source type\00", align 1
@.str.399 = private unnamed_addr constant [12 x i8] c"Target type\00", align 1
@.str.400 = private unnamed_addr constant [168 x i8] c"       CASE WHEN c.castmethod = '%c' THEN '(binary coercible)'\0A            WHEN c.castmethod = '%c' THEN '(with inout)'\0A            ELSE p.proname\0A       END AS \22%s\22,\0A\00", align 1
@.str.401 = private unnamed_addr constant [137 x i8] c"       CASE WHEN c.castcontext = '%c' THEN '%s'\0A            WHEN c.castcontext = '%c' THEN '%s'\0A            ELSE '%s'\0A       END AS \22%s\22\00", align 1
@.str.402 = private unnamed_addr constant [14 x i8] c"in assignment\00", align 1
@.str.403 = private unnamed_addr constant [10 x i8] c"Implicit?\00", align 1
@.str.404 = private unnamed_addr constant [115 x i8] c",\0A       CASE WHEN p.proleakproof THEN '%s'\0A            ELSE '%s'\0A       END AS \22%s\22,\0A       d.description AS \22%s\22\00", align 1
@.str.406 = private unnamed_addr constant [116 x i8] c"     LEFT JOIN pg_catalog.pg_description d\0A     ON d.classoid = c.tableoid AND d.objoid = c.oid AND d.objsubid = 0\0A\00", align 1
@.str.407 = private unnamed_addr constant [14 x i8] c"WHERE ( (true\00", align 1
@.str.408 = private unnamed_addr constant [11 x i8] c"ns.nspname\00", align 1
@.str.409 = private unnamed_addr constant [11 x i8] c"ts.typname\00", align 1
@.str.410 = private unnamed_addr constant [37 x i8] c"pg_catalog.format_type(ts.oid, NULL)\00", align 1
@.str.411 = private unnamed_addr constant [38 x i8] c"pg_catalog.pg_type_is_visible(ts.oid)\00", align 1
@.str.412 = private unnamed_addr constant [11 x i8] c") OR (true\00", align 1
@.str.413 = private unnamed_addr constant [11 x i8] c"nt.nspname\00", align 1
@.str.414 = private unnamed_addr constant [11 x i8] c"tt.typname\00", align 1
@.str.415 = private unnamed_addr constant [37 x i8] c"pg_catalog.format_type(tt.oid, NULL)\00", align 1
@.str.416 = private unnamed_addr constant [38 x i8] c"pg_catalog.pg_type_is_visible(tt.oid)\00", align 1
@.str.417 = private unnamed_addr constant [19 x i8] c") )\0AORDER BY 1, 2;\00", align 1
@.str.418 = private unnamed_addr constant [14 x i8] c"List of casts\00", align 1

; Function Attrs: nounwind uwtable
define dso_local zeroext i1 @listCasts(ptr noundef %0, i1 noundef zeroext %1) #0 {
  %3 = alloca i1, align 1
  %4 = alloca ptr, align 8
  %5 = alloca i8, align 1
  %6 = alloca %struct.PQExpBufferData, align 8
  %7 = alloca ptr, align 8
  %8 = alloca %struct.printQueryOpt, align 8
  %9 = alloca i32, align 4
  store ptr %0, ptr %4, align 8
  %10 = zext i1 %1 to i8
  store i8 %10, ptr %5, align 1
  call void @llvm.lifetime.start.p0(i64 24, ptr %6) #8
  call void @llvm.lifetime.start.p0(i64 8, ptr %7) #8
  call void @llvm.lifetime.start.p0(i64 168, ptr %8) #8
  call void @llvm.memcpy.p0.p0.i64(ptr align 8 %8, ptr align 8 getelementptr inbounds nuw (%struct._psqlSettings, ptr @pset, i32 0, i32 6), i64 168, i1 false)
  call void @initPQExpBuffer(ptr noundef %6)
  call void (ptr, ptr, ...) @printfPQExpBuffer(ptr noundef %6, ptr noundef @.str.397, ptr noundef @.str.398, ptr noundef @.str.399)
  call void (ptr, ptr, ...) @appendPQExpBuffer(ptr noundef %6, ptr noundef @.str.400, i32 noundef 98, i32 noundef 105, ptr noundef @.str.118)
  call void (ptr, ptr, ...) @appendPQExpBuffer(ptr noundef %6, ptr noundef @.str.401, i32 noundef 101, ptr noundef @.str.62, i32 noundef 97, ptr noundef @.str.402, ptr noundef @.str.61, ptr noundef @.str.403)
  %11 = load i8, ptr %5, align 1, !range !4, !noundef !5
  %12 = trunc i8 %11 to i1
  br i1 %12, label %13, label %14

13:                                               ; preds = %2
  call void (ptr, ptr, ...) @appendPQExpBuffer(ptr noundef %6, ptr noundef @.str.404, ptr noundef @.str.61, ptr noundef @.str.62, ptr noundef @.str.63, ptr noundef @.str.6)
  br label %14

14:                                               ; preds = %13, %2
  call void @appendPQExpBufferStr(ptr noundef %6, ptr noundef @.str.405)
  %15 = load i8, ptr %5, align 1, !range !4, !noundef !5
  %16 = trunc i8 %15 to i1
  br i1 %16, label %17, label %18

17:                                               ; preds = %14
  call void @appendPQExpBufferStr(ptr noundef %6, ptr noundef @.str.406)
  br label %18

18:                                               ; preds = %17, %14
  call void @appendPQExpBufferStr(ptr noundef %6, ptr noundef @.str.407)
  %19 = load ptr, ptr %4, align 8
  %20 = call zeroext i1 @validateSQLNamePattern(ptr noundef %6, ptr noundef %19, i1 noundef zeroext true, i1 noundef zeroext false, ptr noundef @.str.408, ptr noundef @.str.409, ptr noundef @.str.410, ptr noundef @.str.411, ptr noundef null, i32 noundef 3)
  br i1 %20, label %22, label %21

21:                                               ; preds = %18
  br label %42

22:                                               ; preds = %18
  call void @appendPQExpBufferStr(ptr noundef %6, ptr noundef @.str.412)
  %23 = load ptr, ptr %4, align 8
  %24 = call zeroext i1 @validateSQLNamePattern(ptr noundef %6, ptr noundef %23, i1 noundef zeroext true, i1 noundef zeroext false, ptr noundef @.str.413, ptr noundef @.str.414, ptr noundef @.str.415, ptr noundef @.str.416, ptr noundef null, i32 noundef 3)
  br i1 %24, label %26, label %25

25:                                               ; preds = %22
  br label %42

26:                                               ; preds = %22
  call void @appendPQExpBufferStr(ptr noundef %6, ptr noundef @.str.417)
  %27 = getelementptr inbounds nuw %struct.PQExpBufferData, ptr %6, i32 0, i32 0
  %28 = load ptr, ptr %27, align 8
  %29 = call ptr @PSQLexec(ptr noundef %28)
  store ptr %29, ptr %7, align 8
  call void @termPQExpBuffer(ptr noundef %6)
  %30 = load ptr, ptr %7, align 8
  %31 = icmp ne ptr %30, null
  br i1 %31, label %33, label %32

32:                                               ; preds = %26
  store i1 false, ptr %3, align 1
  store i32 1, ptr %9, align 4
  br label %43

33:                                               ; preds = %26
  %34 = getelementptr inbounds nuw %struct.printQueryOpt, ptr %8, i32 0, i32 2
  store ptr @.str.418, ptr %34, align 8
  %35 = getelementptr inbounds nuw %struct.printQueryOpt, ptr %8, i32 0, i32 4
  store i8 1, ptr %35, align 8
  %36 = getelementptr inbounds nuw %struct.printQueryOpt, ptr %8, i32 0, i32 5
  store ptr @listCasts.translate_columns, ptr %36, align 8
  %37 = getelementptr inbounds nuw %struct.printQueryOpt, ptr %8, i32 0, i32 6
  store i32 6, ptr %37, align 8
  %38 = load ptr, ptr %7, align 8
  %39 = load ptr, ptr getelementptr inbounds nuw (%struct._psqlSettings, ptr @pset, i32 0, i32 2), align 8
  %40 = load ptr, ptr getelementptr inbounds nuw (%struct._psqlSettings, ptr @pset, i32 0, i32 28), align 8
  call void @printQuery(ptr noundef %38, ptr noundef %8, ptr noundef %39, i1 noundef zeroext false, ptr noundef %40)
  %41 = load ptr, ptr %7, align 8
  call void @PQclear(ptr noundef %41)
  store i1 true, ptr %3, align 1
  store i32 1, ptr %9, align 4
  br label %43

42:                                               ; preds = %25, %21
  call void @termPQExpBuffer(ptr noundef %6)
  store i1 false, ptr %3, align 1
  store i32 1, ptr %9, align 4
  br label %43

43:                                               ; preds = %42, %33, %32
  call void @llvm.lifetime.end.p0(i64 168, ptr %8) #8
  call void @llvm.lifetime.end.p0(i64 8, ptr %7) #8
  call void @llvm.lifetime.end.p0(i64 24, ptr %6) #8
  %44 = load i1, ptr %3, align 1
  ret i1 %44
}