; Function Attrs: nounwind uwtable
define dso_local noundef zeroext i1 @listCasts(ptr noundef %0, i1 noundef zeroext %1) local_unnamed_addr #0 {
  %3 = alloca %struct.PQExpBufferData, align 8
  %4 = alloca %struct.printQueryOpt, align 8
  call void @llvm.lifetime.start.p0(i64 24, ptr nonnull %3) #8
  call void @llvm.lifetime.start.p0(i64 168, ptr nonnull %4) #8
  call void @llvm.memcpy.p0.p0.i64(ptr noundef nonnull align 8 dereferenceable(168) %4, ptr noundef nonnull align 8 dereferenceable(168) getelementptr inbounds nuw (i8, ptr @pset, i64 48), i64 168, i1 false)
  call void @initPQExpBuffer(ptr noundef nonnull %3) #8
  call void (ptr, ptr, ...) @printfPQExpBuffer(ptr noundef nonnull %3, ptr noundef nonnull @.str.397, ptr noundef nonnull @.str.398, ptr noundef nonnull @.str.399) #8
  call void (ptr, ptr, ...) @appendPQExpBuffer(ptr noundef nonnull %3, ptr noundef nonnull @.str.400, i32 noundef 98, i32 noundef 105, ptr noundef nonnull @.str.118) #8
  call void (ptr, ptr, ...) @appendPQExpBuffer(ptr noundef nonnull %3, ptr noundef nonnull @.str.401, i32 noundef 101, ptr noundef nonnull @.str.62, i32 noundef 97, ptr noundef nonnull @.str.402, ptr noundef nonnull @.str.61, ptr noundef nonnull @.str.403) #8
  br i1 %1, label %5, label %.critedge

5:                                                ; preds = %2
  call void (ptr, ptr, ...) @appendPQExpBuffer(ptr noundef nonnull %3, ptr noundef nonnull @.str.404, ptr noundef nonnull @.str.61, ptr noundef nonnull @.str.62, ptr noundef nonnull @.str.63, ptr noundef nonnull @.str.6) #8
  call void @appendPQExpBufferStr(ptr noundef nonnull %3, ptr noundef nonnull @.str.405) #8
  br label %.critedge

.critedge:                                        ; preds = %2, %5
  %.str.405.sink = phi ptr [ @.str.406, %5 ], [ @.str.405, %2 ]
  call void @appendPQExpBufferStr(ptr noundef nonnull %3, ptr noundef nonnull %.str.405.sink) #8
  call void @appendPQExpBufferStr(ptr noundef nonnull %3, ptr noundef nonnull @.str.407) #8
  %6 = call fastcc zeroext i1 @validateSQLNamePattern(ptr noundef %3, ptr noundef %0, i1 noundef zeroext true, i1 noundef zeroext false, ptr noundef nonnull @.str.408, ptr noundef nonnull @.str.409, ptr noundef nonnull @.str.410, ptr noundef nonnull @.str.411, ptr noundef null, i32 noundef 3)
  br i1 %6, label %7, label %19

7:                                                ; preds = %.critedge
  call void @appendPQExpBufferStr(ptr noundef nonnull %3, ptr noundef nonnull @.str.412) #8
  %8 = call fastcc zeroext i1 @validateSQLNamePattern(ptr noundef %3, ptr noundef %0, i1 noundef zeroext true, i1 noundef zeroext false, ptr noundef nonnull @.str.413, ptr noundef nonnull @.str.414, ptr noundef nonnull @.str.415, ptr noundef nonnull @.str.416, ptr noundef null, i32 noundef 3)
  br i1 %8, label %9, label %19

9:                                                ; preds = %7
  call void @appendPQExpBufferStr(ptr noundef nonnull %3, ptr noundef nonnull @.str.417) #8
  %10 = load ptr, ptr %3, align 8
  %11 = call ptr @PSQLexec(ptr noundef %10) #8
  call void @termPQExpBuffer(ptr noundef nonnull %3) #8
  %.not = icmp eq ptr %11, null
  br i1 %.not, label %20, label %12

12:                                               ; preds = %9
  %13 = getelementptr inbounds nuw i8, ptr %4, i64 128
  store ptr @.str.418, ptr %13, align 8
  %14 = getelementptr inbounds nuw i8, ptr %4, i64 144
  store i8 1, ptr %14, align 8
  %15 = getelementptr inbounds nuw i8, ptr %4, i64 152
  store ptr @listCasts.translate_columns, ptr %15, align 8
  %16 = getelementptr inbounds nuw i8, ptr %4, i64 160
  store i32 6, ptr %16, align 8
  %17 = load ptr, ptr getelementptr inbounds nuw (i8, ptr @pset, i64 16), align 8
  %18 = load ptr, ptr getelementptr inbounds nuw (i8, ptr @pset, i64 376), align 8
  call void @printQuery(ptr noundef nonnull %11, ptr noundef nonnull %4, ptr noundef %17, i1 noundef zeroext false, ptr noundef %18) #8
  call void @PQclear(ptr noundef nonnull %11) #8
  br label %20

19:                                               ; preds = %7, %.critedge
  call void @termPQExpBuffer(ptr noundef nonnull %3) #8
  br label %20

20:                                               ; preds = %9, %19, %12
  %.0 = phi i1 [ true, %12 ], [ false, %19 ], [ false, %9 ]
  call void @llvm.lifetime.end.p0(i64 168, ptr nonnull %4) #8
  call void @llvm.lifetime.end.p0(i64 24, ptr nonnull %3) #8
  ret i1 %.0
}